; Function Attrs: mustprogress nofree norecurse nosync nounwind willreturn memory(readwrite, inaccessiblemem: none) uwtable
define void @_ZNK5faiss9IndexFlat11reconstructElPf(ptr noundef nonnull readonly align 8 captures(none) dereferenceable(72) %0, i64 noundef %1, ptr noundef writeonly captures(none) %2) unnamed_addr #3 align 2 {
  %4 = getelementptr inbounds nuw i8, ptr %0, i64 48
  %5 = getelementptr inbounds nuw i8, ptr %0, i64 40
  %6 = load i64, ptr %5, align 8, !tbaa !44
  %7 = mul i64 %6, %1
  %8 = load ptr, ptr %4, align 8, !tbaa !7
  %9 = getelementptr inbounds nuw i8, ptr %8, i64 %7
  tail call void @llvm.memcpy.p0.p0.i64(ptr align 4 %2, ptr nonnull align 1 %9, i64 %6, i1 false)
  ret void
}